target datalayout = "e-m:e-p270:32:32-p271:32:32-p272:64:64-i64:64-i128:128-f80:128-n8:16:32:64-S128"
target triple = "x86_64-unknown-linux-gnu"

%struct.FDMonOps = type { ptr, ptr, ptr }
%struct.AioContext = type { %struct._GSource, %struct.QemuRecMutex, ptr, %struct.AioHandlerList, %struct.AioHandlerList, i32, %struct.QemuLockCnt, %struct.BHList, %struct.anon, i8, %struct.EventNotifier, %struct.anon.0, ptr, i32, i32, ptr, ptr, %struct.io_uring, %struct.AioHandlerSList, %struct.QEMUTimerListGroup, i32, i64, i64, i64, i64, i64, %struct.AioHandlerList, i8, i32, ptr }
%struct._GSource = type { ptr, ptr, ptr, i32, ptr, i32, i32, i32, ptr, ptr, ptr, ptr, ptr }
%struct.QemuRecMutex = type { %struct.QemuMutex }
%struct.QemuMutex = type { %union.pthread_mutex_t, i8 }
%union.pthread_mutex_t = type { %struct.__pthread_mutex_s }
%struct.__pthread_mutex_s = type { i32, i32, i32, i32, i32, i16, i16, %struct.__pthread_internal_list }
%struct.__pthread_internal_list = type { ptr, ptr }
%struct.QemuLockCnt = type { i32 }
%struct.BHList = type { ptr }
%struct.anon = type { ptr, ptr }
%struct.EventNotifier = type { i32, i32, i8 }
%struct.anon.0 = type { ptr }
%struct.io_uring = type { %struct.io_uring_sq, %struct.io_uring_cq, i32, i32, i32, [3 x i32] }
%struct.io_uring_sq = type { ptr, ptr, ptr, ptr, ptr, ptr, ptr, ptr, i32, i32, i64, ptr, [4 x i32] }
%struct.io_uring_cq = type { ptr, ptr, ptr, ptr, ptr, ptr, ptr, i64, ptr, [4 x i32] }
%struct.AioHandlerSList = type { ptr }
%struct.QEMUTimerListGroup = type { [4 x ptr] }
%struct.AioHandlerList = type { ptr }

@fdmon_io_uring_ops = internal constant %struct.FDMonOps { ptr @fdmon_io_uring_update, ptr @fdmon_io_uring_wait, ptr @fdmon_io_uring_need_wait }, align 8

; Function Attrs: nounwind sspstrong uwtable
define dso_local zeroext i1 @fdmon_io_uring_setup(ptr noundef %ctx) #0 {
entry:
  %retval = alloca i1, align 1
  %ctx.addr = alloca ptr, align 8
  %ret = alloca i32, align 4
  store ptr %ctx, ptr %ctx.addr, align 8
  %0 = load ptr, ptr %ctx.addr, align 8
  %fdmon_io_uring = getelementptr inbounds %struct.AioContext, ptr %0, i32 0, i32 17
  %call = call i32 @io_uring_queue_init(i32 noundef 128, ptr noundef %fdmon_io_uring, i32 noundef 0)
  store i32 %call, ptr %ret, align 4
  %1 = load i32, ptr %ret, align 4
  %cmp = icmp ne i32 %1, 0
  br i1 %cmp, label %if.then, label %if.end

if.then:                                          ; preds = %entry
  store i1 false, ptr %retval, align 1
  br label %return

if.end:                                           ; preds = %entry
  br label %do.body

do.body:                                          ; preds = %if.end
  %2 = load ptr, ptr %ctx.addr, align 8
  %submit_list = getelementptr inbounds %struct.AioContext, ptr %2, i32 0, i32 18
  %slh_first = getelementptr inbounds %struct.AioHandlerSList, ptr %submit_list, i32 0, i32 0
  store ptr null, ptr %slh_first, align 8
  br label %do.end

do.end:                                           ; preds = %do.body
  %3 = load ptr, ptr %ctx.addr, align 8
  %fdmon_ops = getelementptr inbounds %struct.AioContext, ptr %3, i32 0, i32 29
  store ptr @fdmon_io_uring_ops, ptr %fdmon_ops, align 8
  store i1 true, ptr %retval, align 1
  br label %return

return:                                           ; preds = %do.end, %if.then
  %4 = load i1, ptr %retval, align 1
  ret i1 %4
}