; Function Attrs: nounwind sspstrong uwtable
define dso_local noundef zeroext i1 @fdmon_io_uring_setup(ptr noundef %ctx) local_unnamed_addr #0 {
entry:
  %fdmon_io_uring = getelementptr inbounds nuw i8, ptr %ctx, i64 256
  %call = tail call i32 @io_uring_queue_init(i32 noundef 128, ptr noundef nonnull %fdmon_io_uring, i32 noundef 0) #6
  %cmp.not = icmp eq i32 %call, 0
  br i1 %cmp.not, label %do.body, label %return

do.body:                                          ; preds = %entry
  %submit_list = getelementptr inbounds nuw i8, ptr %ctx, i64 472
  store ptr null, ptr %submit_list, align 8
  %fdmon_ops = getelementptr inbounds nuw i8, ptr %ctx, i64 576
  store ptr @fdmon_io_uring_ops, ptr %fdmon_ops, align 8
  br label %return

return:                                           ; preds = %entry, %do.body
  ret i1 %cmp.not
}